; Function Attrs: mustprogress uwtable
define void @_ZNK8QuantLib26SwaptionVolatilityDiscrete21initializeOptionTimesEv(ptr noundef nonnull align 8 dereferenceable(336) %this) local_unnamed_addr #8 align 2 {
entry:
  %optionInterpolatorTimes_ = getelementptr inbounds nuw i8, ptr %this, i64 224
  %0 = load ptr, ptr %optionInterpolatorTimes_, align 8, !tbaa !57
  store double 0.000000e+00, ptr %0, align 8, !tbaa !59
  %nOptionTenors_ = getelementptr inbounds nuw i8, ptr %this, i64 88
  %1 = load i64, ptr %nOptionTenors_, align 8, !tbaa !36
  %cmp7.not = icmp eq i64 %1, 0
  br i1 %cmp7.not, label %for.cond.cleanup, label %for.body.lr.ph

for.body.lr.ph:                                   ; preds = %entry
  %add.ptr = getelementptr inbounds i8, ptr %this, i64 16
  %optionDates_ = getelementptr inbounds nuw i8, ptr %this, i64 120
  %optionTimes_ = getelementptr inbounds nuw i8, ptr %this, i64 144
  br label %for.body

for.cond.cleanup:                                 ; preds = %for.body, %entry
  ret void

for.body:                                         ; preds = %for.body.lr.ph, %for.body
  %i.08 = phi i64 [ 0, %for.body.lr.ph ], [ %add, %for.body ]
  %2 = load ptr, ptr %optionDates_, align 8, !tbaa !67
  %add.ptr.i = getelementptr inbounds nuw %"class.QuantLib::Date", ptr %2, i64 %i.08
  %call3 = tail call noundef double @_ZNK8QuantLib13TermStructure17timeFromReferenceERKNS_4DateE(ptr noundef nonnull align 8 dereferenceable(64) %add.ptr, ptr noundef nonnull align 8 dereferenceable(8) %add.ptr.i)
  %add = add nuw i64 %i.08, 1
  %3 = load ptr, ptr %optionInterpolatorTimes_, align 8, !tbaa !57
  %add.ptr.i5 = getelementptr inbounds nuw double, ptr %3, i64 %add
  store double %call3, ptr %add.ptr.i5, align 8, !tbaa !59
  %4 = load ptr, ptr %optionTimes_, align 8, !tbaa !57
  %add.ptr.i6 = getelementptr inbounds nuw double, ptr %4, i64 %i.08
  store double %call3, ptr %add.ptr.i6, align 8, !tbaa !59
  %5 = load i64, ptr %nOptionTenors_, align 8, !tbaa !36
  %cmp = icmp ult i64 %add, %5
  br i1 %cmp, label %for.body, label %for.cond.cleanup, !llvm.loop !78
}